target datalayout = "e-m:e-p270:32:32-p271:32:32-p272:64:64-i64:64-i128:128-f80:128-n8:16:32:64-S128"
target triple = "x86_64-pc-linux-gnu"

%struct.GenContext_ = type { i8, ptr, ptr, ptr, ptr, ptr, ptr, ptr, ptr, ptr, ptr, ptr, ptr, ptr, ptr, ptr, ptr, ptr, ptr, ptr, ptr, ptr, ptr, ptr, ptr, ptr, ptr, ptr, ptr, ptr, ptr, ptr, ptr, %struct.anon.85, i32, i32, %struct.DebugContext, ptr, ptr, ptr, %struct.BEValue, i8, %union.SourceSpan, ptr, ptr, ptr, ptr }
%struct.anon.85 = type { ptr, ptr, ptr }
%struct.DebugContext = type { i16, ptr, ptr, %struct.DebugFile_, ptr, ptr, ptr, ptr }
%struct.DebugFile_ = type { i16, ptr }
%struct.BEValue = type { i8, i32, ptr, ptr, ptr }
%union.SourceSpan = type { i64 }
%struct.anon = type { i16, i8, i8, i32 }
%struct.Type_ = type { i32, ptr, ptr, ptr, %union.anon.90, ptr, ptr, %union.anon.92 }
%union.anon.90 = type { ptr }
%union.anon.92 = type { %struct.TypeFunction }
%struct.TypeFunction = type { ptr, ptr, ptr }

@type_voidptr = external global ptr, align 8
@id_counter = internal global i32 0, align 4
@.str.8 = private unnamed_addr constant [4 x i8] c"ptr\00", align 1
@type_typeid = external global ptr, align 8
@.str.10 = private unnamed_addr constant [5 x i8] c"type\00", align 1

; Function Attrs: nounwind uwtable
define internal ptr @llvm_get_debug_member(ptr noundef %0, ptr noundef %1, ptr noundef %2, i32 noundef %3, ptr noundef %4, ptr noundef %5, i32 noundef %6) #0 {
  %8 = alloca ptr, align 8
  %9 = alloca ptr, align 8
  %10 = alloca ptr, align 8
  %11 = alloca i32, align 4
  %12 = alloca ptr, align 8
  %13 = alloca ptr, align 8
  %14 = alloca i32, align 4
  store ptr %0, ptr %8, align 8
  store ptr %1, ptr %9, align 8
  store ptr %2, ptr %10, align 8
  store i32 %3, ptr %11, align 4
  store ptr %4, ptr %12, align 8
  store ptr %5, ptr %13, align 8
  store i32 %6, ptr %14, align 4
  %15 = load ptr, ptr %8, align 8
  %16 = getelementptr inbounds %struct.GenContext_, ptr %15, i32 0, i32 36
  %17 = getelementptr inbounds %struct.DebugContext, ptr %16, i32 0, i32 1
  %18 = load ptr, ptr %17, align 8
  %19 = load ptr, ptr %13, align 8
  %20 = load ptr, ptr %10, align 8
  %21 = load ptr, ptr %10, align 8
  %22 = call i64 @strlen(ptr noundef %21) #5
  %23 = load ptr, ptr %12, align 8
  %24 = icmp ne ptr %23, null
  br i1 %24, label %25, label %31

25:                                               ; preds = %7
  %26 = load ptr, ptr %8, align 8
  %27 = getelementptr inbounds %struct.GenContext_, ptr %26, i32 0, i32 36
  %28 = getelementptr inbounds %struct.DebugContext, ptr %27, i32 0, i32 3
  %29 = getelementptr inbounds %struct.DebugFile_, ptr %28, i32 0, i32 1
  %30 = load ptr, ptr %29, align 8
  br label %32

31:                                               ; preds = %7
  br label %32

32:                                               ; preds = %31, %25
  %33 = phi ptr [ %30, %25 ], [ null, %31 ]
  %34 = load ptr, ptr %12, align 8
  %35 = icmp ne ptr %34, null
  br i1 %35, label %36, label %40

36:                                               ; preds = %32
  %37 = load ptr, ptr %12, align 8
  %38 = getelementptr inbounds %struct.anon, ptr %37, i32 0, i32 3
  %39 = load i32, ptr %38, align 4
  br label %41

40:                                               ; preds = %32
  br label %41

41:                                               ; preds = %40, %36
  %42 = phi i32 [ %39, %36 ], [ 0, %40 ]
  %43 = load ptr, ptr %9, align 8
  %44 = call i32 @type_size(ptr noundef %43)
  %45 = mul i32 %44, 8
  %46 = zext i32 %45 to i64
  %47 = load ptr, ptr %9, align 8
  %48 = call i32 @type_abi_alignment(ptr noundef %47)
  %49 = mul i32 %48, 8
  %50 = load i32, ptr %11, align 4
  %51 = mul i32 %50, 8
  %52 = zext i32 %51 to i64
  %53 = load i32, ptr %14, align 4
  %54 = load ptr, ptr %8, align 8
  %55 = load ptr, ptr %9, align 8
  %56 = load ptr, ptr %13, align 8
  %57 = call ptr @llvm_get_debug_type_internal(ptr noundef %54, ptr noundef %55, ptr noundef %56)
  %58 = call ptr @LLVMDIBuilderCreateMemberType(ptr noundef %18, ptr noundef %19, ptr noundef %20, i64 noundef %22, ptr noundef %33, i32 noundef %42, i64 noundef %46, i32 noundef %49, i64 noundef %52, i32 noundef %53, ptr noundef %57)
  ret ptr %58
}

; Function Attrs: nounwind uwtable
define internal ptr @llvm_debug_forward_comp(ptr noundef %0, ptr noundef %1, ptr noundef %2, ptr noundef %3, ptr noundef %4, i32 noundef %5) #0 {
  %7 = alloca ptr, align 8
  %8 = alloca ptr, align 8
  %9 = alloca ptr, align 8
  %10 = alloca ptr, align 8
  %11 = alloca ptr, align 8
  %12 = alloca i32, align 4
  %13 = alloca i32, align 4
  store ptr %0, ptr %7, align 8
  store ptr %1, ptr %8, align 8
  store ptr %2, ptr %9, align 8
  store ptr %3, ptr %10, align 8
  store ptr %4, ptr %11, align 8
  store i32 %5, ptr %12, align 4
  store i32 0, ptr %13, align 4
  %14 = load ptr, ptr %10, align 8
  %15 = icmp ne ptr %14, null
  br i1 %15, label %16, label %24

16:                                               ; preds = %6
  %17 = load ptr, ptr %10, align 8
  %18 = getelementptr inbounds %struct.anon, ptr %17, i32 0, i32 3
  %19 = load i32, ptr %18, align 4
  store i32 %19, ptr %13, align 4
  %20 = load i32, ptr %13, align 4
  %21 = icmp ne i32 %20, 0
  br i1 %21, label %23, label %22

22:                                               ; preds = %16
  store i32 1, ptr %13, align 4
  br label %23

23:                                               ; preds = %22, %16
  br label %24

24:                                               ; preds = %23, %6
  %25 = load ptr, ptr %7, align 8
  %26 = getelementptr inbounds %struct.GenContext_, ptr %25, i32 0, i32 36
  %27 = getelementptr inbounds %struct.DebugContext, ptr %26, i32 0, i32 1
  %28 = load ptr, ptr %27, align 8
  %29 = load i32, ptr @id_counter, align 4
  %30 = add i32 %29, 1
  store i32 %30, ptr @id_counter, align 4
  %31 = load ptr, ptr %8, align 8
  %32 = getelementptr inbounds %struct.Type_, ptr %31, i32 0, i32 2
  %33 = load ptr, ptr %32, align 8
  %34 = load ptr, ptr %8, align 8
  %35 = getelementptr inbounds %struct.Type_, ptr %34, i32 0, i32 2
  %36 = load ptr, ptr %35, align 8
  %37 = call i64 @strlen(ptr noundef %36) #5
  %38 = load ptr, ptr %11, align 8
  %39 = load ptr, ptr %7, align 8
  %40 = getelementptr inbounds %struct.GenContext_, ptr %39, i32 0, i32 36
  %41 = getelementptr inbounds %struct.DebugContext, ptr %40, i32 0, i32 3
  %42 = getelementptr inbounds %struct.DebugFile_, ptr %41, i32 0, i32 1
  %43 = load ptr, ptr %42, align 8
  %44 = load i32, ptr %13, align 4
  %45 = load ptr, ptr %7, align 8
  %46 = getelementptr inbounds %struct.GenContext_, ptr %45, i32 0, i32 36
  %47 = load i16, ptr %46, align 8
  %48 = and i16 %47, 255
  %49 = zext i16 %48 to i32
  %50 = load ptr, ptr %8, align 8
  %51 = call i32 @type_size(ptr noundef %50)
  %52 = mul i32 %51, 8
  %53 = zext i32 %52 to i64
  %54 = load ptr, ptr %8, align 8
  %55 = call i32 @type_abi_alignment(ptr noundef %54)
  %56 = mul i32 %55, 8
  %57 = load i32, ptr %12, align 4
  %58 = load ptr, ptr %9, align 8
  %59 = load ptr, ptr %9, align 8
  %60 = call i64 @strlen(ptr noundef %59) #5
  %61 = call ptr @LLVMDIBuilderCreateReplaceableCompositeType(ptr noundef %28, i32 noundef %29, ptr noundef %33, i64 noundef %37, ptr noundef %38, ptr noundef %43, i32 noundef %44, i32 noundef %49, i64 noundef %53, i32 noundef %56, i32 noundef %57, ptr noundef %58, i64 noundef %60)
  ret ptr %61
}

; Function Attrs: nounwind uwtable
define internal ptr @llvm_debug_any_type(ptr noundef %0, ptr noundef %1) #0 {
  %3 = alloca ptr, align 8
  %4 = alloca ptr, align 8
  %5 = alloca ptr, align 8
  %6 = alloca [2 x ptr], align 16
  store ptr %0, ptr %3, align 8
  store ptr %1, ptr %4, align 8
  %7 = load ptr, ptr %3, align 8
  %8 = load ptr, ptr %4, align 8
  %9 = load ptr, ptr %4, align 8
  %10 = getelementptr inbounds %struct.Type_, ptr %9, i32 0, i32 2
  %11 = load ptr, ptr %10, align 8
  %12 = call ptr @llvm_debug_forward_comp(ptr noundef %7, ptr noundef %8, ptr noundef %11, ptr noundef null, ptr noundef null, i32 noundef 0)
  store ptr %12, ptr %5, align 8
  %13 = load ptr, ptr %5, align 8
  %14 = load ptr, ptr %4, align 8
  %15 = getelementptr inbounds %struct.Type_, ptr %14, i32 0, i32 6
  store ptr %13, ptr %15, align 8
  %16 = getelementptr inbounds [2 x ptr], ptr %6, i64 0, i64 0
  %17 = load ptr, ptr %3, align 8
  %18 = load ptr, ptr @type_voidptr, align 8
  %19 = load ptr, ptr %5, align 8
  %20 = call ptr @llvm_get_debug_member(ptr noundef %17, ptr noundef %18, ptr noundef @.str.8, i32 noundef 0, ptr noundef null, ptr noundef %19, i32 noundef 0)
  store ptr %20, ptr %16, align 8
  %21 = getelementptr inbounds ptr, ptr %16, i64 1
  %22 = load ptr, ptr %3, align 8
  %23 = load ptr, ptr @type_typeid, align 8
  %24 = load ptr, ptr @type_voidptr, align 8
  %25 = call i32 @type_size(ptr noundef %24)
  %26 = load ptr, ptr %5, align 8
  %27 = call ptr @llvm_get_debug_member(ptr noundef %22, ptr noundef %23, ptr noundef @.str.10, i32 noundef %25, ptr noundef null, ptr noundef %26, i32 noundef 0)
  store ptr %27, ptr %21, align 8
  %28 = load ptr, ptr %3, align 8
  %29 = load ptr, ptr %4, align 8
  %30 = load ptr, ptr %4, align 8
  %31 = getelementptr inbounds %struct.Type_, ptr %30, i32 0, i32 2
  %32 = load ptr, ptr %31, align 8
  %33 = getelementptr inbounds [2 x ptr], ptr %6, i64 0, i64 0
  %34 = call ptr @llvm_get_debug_struct(ptr noundef %28, ptr noundef %29, ptr noundef %32, ptr noundef %33, i32 noundef 2, ptr noundef null, ptr noundef null, i32 noundef 0)
  ret ptr %34
}