; Function Attrs: nounwind uwtable
define internal fastcc ptr @llvm_debug_any_type(ptr nocapture noundef readonly %0, ptr noundef %1) unnamed_addr #0 {
  %3 = alloca [2 x ptr], align 16
  %4 = getelementptr inbounds i8, ptr %1, i64 16
  %5 = load ptr, ptr %4, align 8
  %6 = getelementptr inbounds i8, ptr %0, i64 296
  %7 = getelementptr inbounds i8, ptr %0, i64 304
  %8 = load ptr, ptr %7, align 8
  %9 = load i32, ptr @id_counter, align 4
  %10 = add i32 %9, 1
  store i32 %10, ptr @id_counter, align 4
  %11 = tail call i64 @strlen(ptr noundef nonnull dereferenceable(1) %5) #9
  %12 = getelementptr inbounds i8, ptr %0, i64 328
  %13 = load ptr, ptr %12, align 8
  %14 = load i16, ptr %6, align 8
  %15 = and i16 %14, 255
  %16 = zext nneg i16 %15 to i32
  %17 = tail call i32 @type_size(ptr noundef %1) #8
  %18 = shl i32 %17, 3
  %19 = zext i32 %18 to i64
  %20 = tail call i32 @type_abi_alignment(ptr noundef %1) #8
  %21 = shl i32 %20, 3
  %22 = tail call i64 @strlen(ptr noundef nonnull dereferenceable(1) %5) #9
  %23 = tail call ptr @LLVMDIBuilderCreateReplaceableCompositeType(ptr noundef %8, i32 noundef %9, ptr noundef %5, i64 noundef %11, ptr noundef null, ptr noundef %13, i32 noundef 0, i32 noundef %16, i64 noundef %19, i32 noundef %21, i32 noundef 0, ptr noundef %5, i64 noundef %22) #8
  %24 = getelementptr inbounds i8, ptr %1, i64 48
  store ptr %23, ptr %24, align 8
  %25 = load ptr, ptr @type_voidptr, align 8
  %26 = load ptr, ptr %7, align 8
  %27 = tail call i32 @type_size(ptr noundef %25) #8
  %28 = shl i32 %27, 3
  %29 = zext i32 %28 to i64
  %30 = tail call i32 @type_abi_alignment(ptr noundef %25) #8
  %31 = shl i32 %30, 3
  %32 = tail call fastcc ptr @llvm_get_debug_type_internal(ptr noundef %0, ptr noundef %25, ptr noundef %23)
  %33 = tail call ptr @LLVMDIBuilderCreateMemberType(ptr noundef %26, ptr noundef %23, ptr noundef nonnull @.str.8, i64 noundef 3, ptr noundef null, i32 noundef 0, i64 noundef %29, i32 noundef %31, i64 noundef 0, i32 noundef 0, ptr noundef %32) #8
  store ptr %33, ptr %3, align 16
  %34 = getelementptr inbounds i8, ptr %3, i64 8
  %35 = load ptr, ptr @type_typeid, align 8
  %36 = load ptr, ptr @type_voidptr, align 8
  %37 = tail call i32 @type_size(ptr noundef %36) #8
  %38 = load ptr, ptr %7, align 8
  %39 = tail call i32 @type_size(ptr noundef %35) #8
  %40 = shl i32 %39, 3
  %41 = zext i32 %40 to i64
  %42 = tail call i32 @type_abi_alignment(ptr noundef %35) #8
  %43 = shl i32 %42, 3
  %44 = shl i32 %37, 3
  %45 = zext i32 %44 to i64
  %46 = tail call fastcc ptr @llvm_get_debug_type_internal(ptr noundef %0, ptr noundef %35, ptr noundef %23)
  %47 = tail call ptr @LLVMDIBuilderCreateMemberType(ptr noundef %38, ptr noundef %23, ptr noundef nonnull @.str.10, i64 noundef 4, ptr noundef null, i32 noundef 0, i64 noundef %41, i32 noundef %43, i64 noundef %45, i32 noundef 0, ptr noundef %46) #8
  store ptr %47, ptr %34, align 8
  %48 = load ptr, ptr %4, align 8
  %49 = call fastcc ptr @llvm_get_debug_struct(ptr noundef %0, ptr noundef %1, ptr noundef %48, ptr noundef nonnull %3, i32 noundef 2, ptr noundef null, ptr noundef null)
  ret ptr %49
}